; Function Attrs: nounwind uwtable
define dso_local ptr @SearchSysCacheAttNum(i32 noundef %0, i16 noundef signext %1) local_unnamed_addr #0 {
  %3 = zext i32 %0 to i64
  %4 = sext i16 %1 to i64
  %5 = load ptr, ptr getelementptr inbounds nuw (i8, ptr @SysCache, i64 56), align 8
  %6 = tail call ptr @SearchCatCache2(ptr noundef %5, i64 noundef %3, i64 noundef %4) #11
  %.not = icmp eq ptr %6, null
  br i1 %.not, label %17, label %7

7:                                                ; preds = %2
  %8 = getelementptr i8, ptr %6, i64 16
  %.val = load ptr, ptr %8, align 8
  %9 = getelementptr inbounds nuw i8, ptr %.val, i64 22
  %10 = load i8, ptr %9, align 2
  %11 = zext i8 %10 to i64
  %12 = getelementptr inbounds nuw i8, ptr %.val, i64 %11
  %13 = getelementptr inbounds nuw i8, ptr %12, i64 91
  %14 = load i8, ptr %13, align 1, !range !8, !noundef !9
  %15 = trunc nuw i8 %14 to i1
  br i1 %15, label %16, label %17

16:                                               ; preds = %7
  tail call void @ReleaseCatCache(ptr noundef nonnull %6) #11
  br label %17

17:                                               ; preds = %7, %2, %16
  %.0 = phi ptr [ null, %16 ], [ null, %2 ], [ %6, %7 ]
  ret ptr %.0
}